target datalayout = "e-m:e-p270:32:32-p271:32:32-p272:64:64-i64:64-i128:128-f80:128-n8:16:32:64-S128"
target triple = "x86_64-pc-linux-gnu"

%struct.Hop_Obj_t_ = type { %union.anon, %union.anon.0, ptr, ptr, i32, i32 }
%union.anon = type { ptr }
%union.anon.0 = type { ptr }
%struct.Nwk_Obj_t_ = type { ptr, ptr, ptr, %union.anon.1, i32, i32, i32, i32, float, float, float, i32, i32, i32, ptr }
%union.anon.1 = type { ptr }
%struct.Nwk_Man_t_ = type { ptr, ptr, ptr, ptr, ptr, [5 x i32], i32, ptr, ptr, ptr, ptr, ptr, i32, i32, i32, i32, i32 }
%struct.Hop_Man_t_ = type { ptr, ptr, ptr, ptr, %struct.Hop_Obj_t_, [6 x i32], i32, i32, ptr, i32, ptr, i32, i32, i32, ptr, ptr, ptr, i64, i64 }
%struct.Aig_Man_t_ = type { ptr, ptr, ptr, ptr, ptr, ptr, ptr, %struct.Aig_Obj_t_, i32, i32, i32, i32, i32, i32, [7 x i32], i32, ptr, i32, ptr, i32, ptr, i32, i32, i32, ptr, i32, i32, i32, i32, i32, ptr, ptr, i32, ptr, ptr, i32, ptr, ptr, i32, i32, i32, ptr, ptr, ptr, ptr, ptr, ptr, ptr, ptr, ptr, ptr, ptr, ptr, ptr, ptr, i32, ptr, ptr, ptr, ptr, i32, i64, i64, i64, ptr, ptr }
%struct.Aig_Obj_t_ = type { %union.anon.2, ptr, ptr, i64, i32, i32, %union.anon.3 }
%union.anon.2 = type { ptr }
%union.anon.3 = type { ptr }

; Function Attrs: inlinehint nounwind uwtable
define internal ptr @Aig_NotCond(ptr noundef %0, i32 noundef %1) #1 {
  %3 = alloca ptr, align 8
  %4 = alloca i32, align 4
  store ptr %0, ptr %3, align 8, !tbaa !42
  store i32 %1, ptr %4, align 4, !tbaa !32
  %5 = load ptr, ptr %3, align 8, !tbaa !42
  %6 = ptrtoint ptr %5 to i64
  %7 = load i32, ptr %4, align 4, !tbaa !32
  %8 = sext i32 %7 to i64
  %9 = xor i64 %6, %8
  %10 = inttoptr i64 %9 to ptr
  ret ptr %10
}

; Function Attrs: inlinehint nounwind uwtable
define internal i32 @Hop_IsComplement(ptr noundef %0) #1 {
  %2 = alloca ptr, align 8
  store ptr %0, ptr %2, align 8, !tbaa !8
  %3 = load ptr, ptr %2, align 8, !tbaa !8
  %4 = ptrtoint ptr %3 to i64
  %5 = and i64 %4, 1
  %6 = trunc i64 %5 to i32
  ret i32 %6
}

; Function Attrs: inlinehint nounwind uwtable
define internal ptr @Aig_ManConst1(ptr noundef %0) #1 {
  %2 = alloca ptr, align 8
  store ptr %0, ptr %2, align 8, !tbaa !3
  %3 = load ptr, ptr %2, align 8, !tbaa !3
  %4 = getelementptr inbounds nuw %struct.Aig_Man_t_, ptr %3, i32 0, i32 6
  %5 = load ptr, ptr %4, align 8, !tbaa !44
  ret ptr %5
}

; Function Attrs: inlinehint nounwind uwtable
define internal ptr @Hop_ManConst1(ptr noundef %0) #1 {
  %2 = alloca ptr, align 8
  store ptr %0, ptr %2, align 8, !tbaa !30
  %3 = load ptr, ptr %2, align 8, !tbaa !30
  %4 = getelementptr inbounds nuw %struct.Hop_Man_t_, ptr %3, i32 0, i32 3
  %5 = load ptr, ptr %4, align 8, !tbaa !38
  ret ptr %5
}

; Function Attrs: inlinehint nounwind uwtable
define internal ptr @Hop_Regular(ptr noundef %0) #1 {
  %2 = alloca ptr, align 8
  store ptr %0, ptr %2, align 8, !tbaa !8
  %3 = load ptr, ptr %2, align 8, !tbaa !8
  %4 = ptrtoint ptr %3 to i64
  %5 = and i64 %4, -2
  %6 = inttoptr i64 %5 to ptr
  ret ptr %6
}

; Function Attrs: nounwind uwtable
define ptr @Nwk_ManStrashNode(ptr noundef %0, ptr noundef %1) #0 {
  %3 = alloca ptr, align 8
  %4 = alloca ptr, align 8
  %5 = alloca ptr, align 8
  %6 = alloca ptr, align 8
  %7 = alloca ptr, align 8
  %8 = alloca ptr, align 8
  %9 = alloca i32, align 4
  %10 = alloca i32, align 4
  store ptr %0, ptr %4, align 8, !tbaa !3
  store ptr %1, ptr %5, align 8, !tbaa !15
  call void @llvm.lifetime.start.p0(i64 8, ptr %6) #7
  %11 = load ptr, ptr %5, align 8, !tbaa !15
  %12 = getelementptr inbounds nuw %struct.Nwk_Obj_t_, ptr %11, i32 0, i32 0
  %13 = load ptr, ptr %12, align 8, !tbaa !17
  %14 = getelementptr inbounds nuw %struct.Nwk_Man_t_, ptr %13, i32 0, i32 7
  %15 = load ptr, ptr %14, align 8, !tbaa !22
  store ptr %15, ptr %6, align 8, !tbaa !30
  call void @llvm.lifetime.start.p0(i64 8, ptr %7) #7
  %16 = load ptr, ptr %5, align 8, !tbaa !15
  %17 = getelementptr inbounds nuw %struct.Nwk_Obj_t_, ptr %16, i32 0, i32 1
  %18 = load ptr, ptr %17, align 8, !tbaa !31
  store ptr %18, ptr %7, align 8, !tbaa !8
  call void @llvm.lifetime.start.p0(i64 8, ptr %8) #7
  call void @llvm.lifetime.start.p0(i64 4, ptr %9) #7
  %19 = load ptr, ptr %7, align 8, !tbaa !8
  %20 = call ptr @Hop_Regular(ptr noundef %19)
  %21 = load ptr, ptr %6, align 8, !tbaa !30
  %22 = call ptr @Hop_ManConst1(ptr noundef %21)
  %23 = icmp eq ptr %20, %22
  br i1 %23, label %24, label %30

24:                                               ; preds = %2
  %25 = load ptr, ptr %4, align 8, !tbaa !3
  %26 = call ptr @Aig_ManConst1(ptr noundef %25)
  %27 = load ptr, ptr %7, align 8, !tbaa !8
  %28 = call i32 @Hop_IsComplement(ptr noundef %27)
  %29 = call ptr @Aig_NotCond(ptr noundef %26, i32 noundef %28)
  store ptr %29, ptr %3, align 8
  store i32 1, ptr %10, align 4
  br label %72

30:                                               ; preds = %2
  store i32 0, ptr %9, align 4, !tbaa !32
  br label %31

31:                                               ; preds = %56, %30
  %32 = load i32, ptr %9, align 4, !tbaa !32
  %33 = load ptr, ptr %5, align 8, !tbaa !15
  %34 = getelementptr inbounds nuw %struct.Nwk_Obj_t_, ptr %33, i32 0, i32 11
  %35 = load i32, ptr %34, align 4, !tbaa !33
  %36 = icmp slt i32 %32, %35
  br i1 %36, label %37, label %46

37:                                               ; preds = %31
  %38 = load ptr, ptr %5, align 8, !tbaa !15
  %39 = getelementptr inbounds nuw %struct.Nwk_Obj_t_, ptr %38, i32 0, i32 14
  %40 = load ptr, ptr %39, align 8, !tbaa !34
  %41 = load i32, ptr %9, align 4, !tbaa !32
  %42 = sext i32 %41 to i64
  %43 = getelementptr inbounds ptr, ptr %40, i64 %42
  %44 = load ptr, ptr %43, align 8, !tbaa !15
  store ptr %44, ptr %8, align 8, !tbaa !15
  %45 = icmp ne ptr %44, null
  br label %46

46:                                               ; preds = %37, %31
  %47 = phi i1 [ false, %31 ], [ %45, %37 ]
  br i1 %47, label %48, label %59

48:                                               ; preds = %46
  %49 = load ptr, ptr %8, align 8, !tbaa !15
  %50 = getelementptr inbounds nuw %struct.Nwk_Obj_t_, ptr %49, i32 0, i32 2
  %51 = load ptr, ptr %50, align 8, !tbaa !35
  %52 = load ptr, ptr %6, align 8, !tbaa !30
  %53 = load i32, ptr %9, align 4, !tbaa !32
  %54 = call ptr @Hop_IthVar(ptr noundef %52, i32 noundef %53)
  %55 = getelementptr inbounds nuw %struct.Hop_Obj_t_, ptr %54, i32 0, i32 0
  store ptr %51, ptr %55, align 8, !tbaa !10
  br label %56

56:                                               ; preds = %48
  %57 = load i32, ptr %9, align 4, !tbaa !32
  %58 = add nsw i32 %57, 1
  store i32 %58, ptr %9, align 4, !tbaa !32
  br label %31, !llvm.loop !36

59:                                               ; preds = %46
  %60 = load ptr, ptr %4, align 8, !tbaa !3
  %61 = load ptr, ptr %7, align 8, !tbaa !8
  %62 = call ptr @Hop_Regular(ptr noundef %61)
  call void @Nwk_ManStrashNode_rec(ptr noundef %60, ptr noundef %62)
  %63 = load ptr, ptr %7, align 8, !tbaa !8
  %64 = call ptr @Hop_Regular(ptr noundef %63)
  call void @Hop_ConeUnmark_rec(ptr noundef %64)
  %65 = load ptr, ptr %7, align 8, !tbaa !8
  %66 = call ptr @Hop_Regular(ptr noundef %65)
  %67 = getelementptr inbounds nuw %struct.Hop_Obj_t_, ptr %66, i32 0, i32 0
  %68 = load ptr, ptr %67, align 8, !tbaa !10
  %69 = load ptr, ptr %7, align 8, !tbaa !8
  %70 = call i32 @Hop_IsComplement(ptr noundef %69)
  %71 = call ptr @Aig_NotCond(ptr noundef %68, i32 noundef %70)
  store ptr %71, ptr %3, align 8
  store i32 1, ptr %10, align 4
  br label %72

72:                                               ; preds = %59, %24
  call void @llvm.lifetime.end.p0(i64 4, ptr %9) #7
  call void @llvm.lifetime.end.p0(i64 8, ptr %8) #7
  call void @llvm.lifetime.end.p0(i64 8, ptr %7) #7
  call void @llvm.lifetime.end.p0(i64 8, ptr %6) #7
  %73 = load ptr, ptr %3, align 8
  ret ptr %73
}