; Function Attrs: nounwind uwtable
define ptr @Nwk_ManStrashNode(ptr noundef %0, ptr noundef readonly captures(none) %1) local_unnamed_addr #0 {
  %3 = load ptr, ptr %1, align 8, !tbaa !12
  %4 = getelementptr inbounds nuw i8, ptr %3, i64 64
  %5 = load ptr, ptr %4, align 8, !tbaa !17
  %6 = getelementptr inbounds nuw i8, ptr %1, i64 8
  %7 = load ptr, ptr %6, align 8, !tbaa !25
  %8 = ptrtoint ptr %7 to i64
  %9 = and i64 %8, -2
  %10 = inttoptr i64 %9 to ptr
  %11 = getelementptr i8, ptr %5, i64 24
  %.val = load ptr, ptr %11, align 8, !tbaa !26
  %12 = icmp eq ptr %.val, %10
  br i1 %12, label %17, label %.preheader

.preheader:                                       ; preds = %2
  %13 = getelementptr inbounds nuw i8, ptr %1, i64 72
  %14 = getelementptr inbounds nuw i8, ptr %1, i64 60
  %15 = load i32, ptr %14, align 4, !tbaa !30
  %16 = icmp sgt i32 %15, 0
  br i1 %16, label %.lr.ph, label %.critedge

17:                                               ; preds = %2
  %18 = getelementptr i8, ptr %0, i64 48
  br label %30

.lr.ph:                                           ; preds = %.preheader, %22
  %indvars.iv = phi i64 [ %indvars.iv.next, %22 ], [ 0, %.preheader ]
  %19 = load ptr, ptr %13, align 8, !tbaa !31
  %20 = getelementptr inbounds nuw ptr, ptr %19, i64 %indvars.iv
  %21 = load ptr, ptr %20, align 8, !tbaa !32
  %.not = icmp eq ptr %21, null
  br i1 %.not, label %.critedge, label %22

22:                                               ; preds = %.lr.ph
  %23 = getelementptr inbounds nuw i8, ptr %21, i64 16
  %24 = load ptr, ptr %23, align 8, !tbaa !34
  %25 = trunc nuw nsw i64 %indvars.iv to i32
  %26 = tail call ptr @Hop_IthVar(ptr noundef %5, i32 noundef %25) #6
  store ptr %24, ptr %26, align 8, !tbaa !11
  %indvars.iv.next = add nuw nsw i64 %indvars.iv, 1
  %27 = load i32, ptr %14, align 4, !tbaa !30
  %28 = sext i32 %27 to i64
  %29 = icmp slt i64 %indvars.iv.next, %28
  br i1 %29, label %.lr.ph, label %.critedge, !llvm.loop !35

.critedge:                                        ; preds = %.lr.ph, %22, %.preheader
  tail call void @Nwk_ManStrashNode_rec(ptr noundef %0, ptr noundef %10)
  tail call void @Hop_ConeUnmark_rec(ptr noundef %10) #6
  br label %30

30:                                               ; preds = %.critedge, %17
  %.sink26.in = phi ptr [ %10, %.critedge ], [ %18, %17 ]
  %.sink26 = load ptr, ptr %.sink26.in, align 8, !tbaa !11
  %31 = and i64 %8, 1
  %32 = ptrtoint ptr %.sink26 to i64
  %33 = xor i64 %31, %32
  %.019 = inttoptr i64 %33 to ptr
  ret ptr %.019
}